; ModuleID = '9/31.c'
source_filename = "9/31.c"
target datalayout = "e-m:e-p270:32:32-p271:32:32-p272:64:64-i64:64-f80:128-n8:16:32:64-S128"
target triple = "x86_64-pc-linux-gnu"

@.str = private unnamed_addr constant [3 x i8] c"%d\00", align 1
@.str.1 = private unnamed_addr constant [5 x i8] c"%s%d\00", align 1
@.str.2 = private unnamed_addr constant [4 x i8] c"%s\0A\00", align 1

; Function Attrs: noinline nounwind uwtable
define dso_local i32 @main() #0 {
  %1 = alloca i32, align 4
  %2 = alloca i32, align 4
  %3 = alloca i32, align 4
  %4 = alloca [110 x i32], align 16
  %5 = alloca [110 x i32], align 16
  %6 = alloca [110 x [101 x i8]], align 16
  %7 = alloca i32, align 4
  %8 = alloca i32, align 4
  %9 = alloca i32, align 4
  %10 = alloca i32, align 4
  %11 = alloca [101 x i8], align 16
  store i32 0, i32* %1, align 4
  %12 = bitcast [110 x [101 x i8]]* %6 to i8*
  call void @llvm.memset.p0i8.i64(i8* align 16 %12, i8 0, i64 11110, i1 false)
  %13 = call i32 (i8*, ...) @__isoc99_scanf(i8* getelementptr inbounds ([3 x i8], [3 x i8]* @.str, i64 0, i64 0), i32* %2)
  store i32 0, i32* %3, align 4
  br label %14

14:                                               ; preds = %31, %0
  %15 = load i32, i32* %3, align 4
  %16 = load i32, i32* %2, align 4
  %17 = icmp slt i32 %15, %16
  br i1 %17, label %18, label %34

18:                                               ; preds = %14
  %19 = load i32, i32* %3, align 4
  %20 = sext i32 %19 to i64
  %21 = getelementptr inbounds [110 x [101 x i8]], [110 x [101 x i8]]* %6, i64 0, i64 %20
  %22 = getelementptr inbounds [101 x i8], [101 x i8]* %21, i64 0, i64 0
  %23 = load i32, i32* %3, align 4
  %24 = sext i32 %23 to i64
  %25 = getelementptr inbounds [110 x i32], [110 x i32]* %4, i64 0, i64 %24
  %26 = call i32 (i8*, ...) @__isoc99_scanf(i8* getelementptr inbounds ([5 x i8], [5 x i8]* @.str.1, i64 0, i64 0), i8* %22, i32* %25)
  %27 = load i32, i32* %3, align 4
  %28 = load i32, i32* %3, align 4
  %29 = sext i32 %28 to i64
  %30 = getelementptr inbounds [110 x i32], [110 x i32]* %5, i64 0, i64 %29
  store i32 %27, i32* %30, align 4
  br label %31

31:                                               ; preds = %18
  %32 = load i32, i32* %3, align 4
  %33 = add nsw i32 %32, 1
  store i32 %33, i32* %3, align 4
  br label %14

34:                                               ; preds = %14
  store i32 0, i32* %3, align 4
  br label %35

35:                                               ; preds = %206, %34
  %36 = load i32, i32* %3, align 4
  %37 = load i32, i32* %2, align 4
  %38 = sub nsw i32 %37, 1
  %39 = icmp slt i32 %36, %38
  br i1 %39, label %40, label %209

40:                                               ; preds = %35
  %41 = load i32, i32* %2, align 4
  %42 = sub nsw i32 %41, 1
  store i32 %42, i32* %10, align 4
  br label %43

43:                                               ; preds = %202, %40
  %44 = load i32, i32* %10, align 4
  %45 = load i32, i32* %3, align 4
  %46 = icmp sgt i32 %44, %45
  br i1 %46, label %47, label %205

47:                                               ; preds = %43
  store i32 0, i32* %7, align 4
  %48 = load i32, i32* %10, align 4
  %49 = sext i32 %48 to i64
  %50 = getelementptr inbounds [110 x i32], [110 x i32]* %4, i64 0, i64 %49
  %51 = load i32, i32* %50, align 4
  %52 = icmp sge i32 %51, 60
  br i1 %52, label %53, label %61

53:                                               ; preds = %47
  %54 = load i32, i32* %10, align 4
  %55 = sub nsw i32 %54, 1
  %56 = sext i32 %55 to i64
  %57 = getelementptr inbounds [110 x i32], [110 x i32]* %4, i64 0, i64 %56
  %58 = load i32, i32* %57, align 4
  %59 = icmp slt i32 %58, 60
  br i1 %59, label %60, label %61

60:                                               ; preds = %53
  store i32 1, i32* %7, align 4
  br label %140

61:                                               ; preds = %53, %47
  %62 = load i32, i32* %10, align 4
  %63 = sext i32 %62 to i64
  %64 = getelementptr inbounds [110 x i32], [110 x i32]* %4, i64 0, i64 %63
  %65 = load i32, i32* %64, align 4
  %66 = icmp sge i32 %65, 60
  br i1 %66, label %67, label %112

67:                                               ; preds = %61
  %68 = load i32, i32* %10, align 4
  %69 = sub nsw i32 %68, 1
  %70 = sext i32 %69 to i64
  %71 = getelementptr inbounds [110 x i32], [110 x i32]* %4, i64 0, i64 %70
  %72 = load i32, i32* %71, align 4
  %73 = icmp sge i32 %72, 60
  br i1 %73, label %74, label %112

74:                                               ; preds = %67
  %75 = load i32, i32* %10, align 4
  %76 = sext i32 %75 to i64
  %77 = getelementptr inbounds [110 x i32], [110 x i32]* %4, i64 0, i64 %76
  %78 = load i32, i32* %77, align 4
  %79 = load i32, i32* %10, align 4
  %80 = sub nsw i32 %79, 1
  %81 = sext i32 %80 to i64
  %82 = getelementptr inbounds [110 x i32], [110 x i32]* %4, i64 0, i64 %81
  %83 = load i32, i32* %82, align 4
  %84 = icmp sgt i32 %78, %83
  br i1 %84, label %85, label %86

85:                                               ; preds = %74
  store i32 1, i32* %7, align 4
  br label %111

86:                                               ; preds = %74
  %87 = load i32, i32* %10, align 4
  %88 = sext i32 %87 to i64
  %89 = getelementptr inbounds [110 x i32], [110 x i32]* %4, i64 0, i64 %88
  %90 = load i32, i32* %89, align 4
  %91 = load i32, i32* %10, align 4
  %92 = sub nsw i32 %91, 1
  %93 = sext i32 %92 to i64
  %94 = getelementptr inbounds [110 x i32], [110 x i32]* %4, i64 0, i64 %93
  %95 = load i32, i32* %94, align 4
  %96 = icmp eq i32 %90, %95
  br i1 %96, label %97, label %110

97:                                               ; preds = %86
  %98 = load i32, i32* %10, align 4
  %99 = sext i32 %98 to i64
  %100 = getelementptr inbounds [110 x i32], [110 x i32]* %5, i64 0, i64 %99
  %101 = load i32, i32* %100, align 4
  %102 = load i32, i32* %10, align 4
  %103 = sub nsw i32 %102, 1
  %104 = sext i32 %103 to i64
  %105 = getelementptr inbounds [110 x i32], [110 x i32]* %5, i64 0, i64 %104
  %106 = load i32, i32* %105, align 4
  %107 = icmp slt i32 %101, %106
  br i1 %107, label %108, label %109

108:                                              ; preds = %97
  store i32 1, i32* %7, align 4
  br label %109

109:                                              ; preds = %108, %97
  br label %110

110:                                              ; preds = %109, %86
  br label %111

111:                                              ; preds = %110, %85
  br label %139

112:                                              ; preds = %67, %61
  %113 = load i32, i32* %10, align 4
  %114 = sext i32 %113 to i64
  %115 = getelementptr inbounds [110 x i32], [110 x i32]* %4, i64 0, i64 %114
  %116 = load i32, i32* %115, align 4
  %117 = icmp slt i32 %116, 60
  br i1 %117, label %118, label %138

118:                                              ; preds = %112
  %119 = load i32, i32* %10, align 4
  %120 = sub nsw i32 %119, 1
  %121 = sext i32 %120 to i64
  %122 = getelementptr inbounds [110 x i32], [110 x i32]* %4, i64 0, i64 %121
  %123 = load i32, i32* %122, align 4
  %124 = icmp slt i32 %123, 60
  br i1 %124, label %125, label %138

125:                                              ; preds = %118
  %126 = load i32, i32* %10, align 4
  %127 = sext i32 %126 to i64
  %128 = getelementptr inbounds [110 x i32], [110 x i32]* %5, i64 0, i64 %127
  %129 = load i32, i32* %128, align 4
  %130 = load i32, i32* %10, align 4
  %131 = sub nsw i32 %130, 1
  %132 = sext i32 %131 to i64
  %133 = getelementptr inbounds [110 x i32], [110 x i32]* %5, i64 0, i64 %132
  %134 = load i32, i32* %133, align 4
  %135 = icmp slt i32 %129, %134
  br i1 %135, label %136, label %137

136:                                              ; preds = %125
  store i32 1, i32* %7, align 4
  br label %137

137:                                              ; preds = %136, %125
  br label %138

138:                                              ; preds = %137, %118, %112
  br label %139

139:                                              ; preds = %138, %111
  br label %140

140:                                              ; preds = %139, %60
  %141 = load i32, i32* %7, align 4
  %142 = icmp ne i32 %141, 0
  br i1 %142, label %143, label %201

143:                                              ; preds = %140
  %144 = load i32, i32* %10, align 4
  %145 = sext i32 %144 to i64
  %146 = getelementptr inbounds [110 x i32], [110 x i32]* %5, i64 0, i64 %145
  %147 = load i32, i32* %146, align 4
  store i32 %147, i32* %8, align 4
  %148 = load i32, i32* %10, align 4
  %149 = sub nsw i32 %148, 1
  %150 = sext i32 %149 to i64
  %151 = getelementptr inbounds [110 x i32], [110 x i32]* %5, i64 0, i64 %150
  %152 = load i32, i32* %151, align 4
  %153 = load i32, i32* %10, align 4
  %154 = sext i32 %153 to i64
  %155 = getelementptr inbounds [110 x i32], [110 x i32]* %5, i64 0, i64 %154
  store i32 %152, i32* %155, align 4
  %156 = load i32, i32* %8, align 4
  %157 = load i32, i32* %10, align 4
  %158 = sub nsw i32 %157, 1
  %159 = sext i32 %158 to i64
  %160 = getelementptr inbounds [110 x i32], [110 x i32]* %5, i64 0, i64 %159
  store i32 %156, i32* %160, align 4
  %161 = load i32, i32* %10, align 4
  %162 = sext i32 %161 to i64
  %163 = getelementptr inbounds [110 x i32], [110 x i32]* %4, i64 0, i64 %162
  %164 = load i32, i32* %163, align 4
  store i32 %164, i32* %9, align 4
  %165 = load i32, i32* %10, align 4
  %166 = sub nsw i32 %165, 1
  %167 = sext i32 %166 to i64
  %168 = getelementptr inbounds [110 x i32], [110 x i32]* %4, i64 0, i64 %167
  %169 = load i32, i32* %168, align 4
  %170 = load i32, i32* %10, align 4
  %171 = sext i32 %170 to i64
  %172 = getelementptr inbounds [110 x i32], [110 x i32]* %4, i64 0, i64 %171
  store i32 %169, i32* %172, align 4
  %173 = load i32, i32* %9, align 4
  %174 = load i32, i32* %10, align 4
  %175 = sub nsw i32 %174, 1
  %176 = sext i32 %175 to i64
  %177 = getelementptr inbounds [110 x i32], [110 x i32]* %4, i64 0, i64 %176
  store i32 %173, i32* %177, align 4
  %178 = getelementptr inbounds [101 x i8], [101 x i8]* %11, i64 0, i64 0
  %179 = load i32, i32* %10, align 4
  %180 = sext i32 %179 to i64
  %181 = getelementptr inbounds [110 x [101 x i8]], [110 x [101 x i8]]* %6, i64 0, i64 %180
  %182 = getelementptr inbounds [101 x i8], [101 x i8]* %181, i64 0, i64 0
  %183 = call i8* @strcpy(i8* %178, i8* %182) #4
  %184 = load i32, i32* %10, align 4
  %185 = sext i32 %184 to i64
  %186 = getelementptr inbounds [110 x [101 x i8]], [110 x [101 x i8]]* %6, i64 0, i64 %185
  %187 = getelementptr inbounds [101 x i8], [101 x i8]* %186, i64 0, i64 0
  %188 = load i32, i32* %10, align 4
  %189 = sub nsw i32 %188, 1
  %190 = sext i32 %189 to i64
  %191 = getelementptr inbounds [110 x [101 x i8]], [110 x [101 x i8]]* %6, i64 0, i64 %190
  %192 = getelementptr inbounds [101 x i8], [101 x i8]* %191, i64 0, i64 0
  %193 = call i8* @strcpy(i8* %187, i8* %192) #4
  %194 = load i32, i32* %10, align 4
  %195 = sub nsw i32 %194, 1
  %196 = sext i32 %195 to i64
  %197 = getelementptr inbounds [110 x [101 x i8]], [110 x [101 x i8]]* %6, i64 0, i64 %196
  %198 = getelementptr inbounds [101 x i8], [101 x i8]* %197, i64 0, i64 0
  %199 = getelementptr inbounds [101 x i8], [101 x i8]* %11, i64 0, i64 0
  %200 = call i8* @strcpy(i8* %198, i8* %199) #4
  br label %201

201:                                              ; preds = %143, %140
  br label %202

202:                                              ; preds = %201
  %203 = load i32, i32* %10, align 4
  %204 = add nsw i32 %203, -1
  store i32 %204, i32* %10, align 4
  br label %43

205:                                              ; preds = %43
  br label %206

206:                                              ; preds = %205
  %207 = load i32, i32* %3, align 4
  %208 = add nsw i32 %207, 1
  store i32 %208, i32* %3, align 4
  br label %35

209:                                              ; preds = %35
  store i32 0, i32* %3, align 4
  br label %210

210:                                              ; preds = %220, %209
  %211 = load i32, i32* %3, align 4
  %212 = load i32, i32* %2, align 4
  %213 = icmp slt i32 %211, %212
  br i1 %213, label %214, label %223

214:                                              ; preds = %210
  %215 = load i32, i32* %3, align 4
  %216 = sext i32 %215 to i64
  %217 = getelementptr inbounds [110 x [101 x i8]], [110 x [101 x i8]]* %6, i64 0, i64 %216
  %218 = getelementptr inbounds [101 x i8], [101 x i8]* %217, i64 0, i64 0
  %219 = call i32 (i8*, ...) @printf(i8* getelementptr inbounds ([4 x i8], [4 x i8]* @.str.2, i64 0, i64 0), i8* %218)
  br label %220

220:                                              ; preds = %214
  %221 = load i32, i32* %3, align 4
  %222 = add nsw i32 %221, 1
  store i32 %222, i32* %3, align 4
  br label %210

223:                                              ; preds = %210
  ret i32 0
}

; Function Attrs: argmemonly nounwind willreturn
declare void @llvm.memset.p0i8.i64(i8* nocapture writeonly, i8, i64, i1 immarg) #1

declare dso_local i32 @__isoc99_scanf(i8*, ...) #2

; Function Attrs: nounwind
declare dso_local i8* @strcpy(i8*, i8*) #3

declare dso_local i32 @printf(i8*, ...) #2


!llvm.module.flags = !{!0}
!llvm.ident = !{!1}

!0 = !{i32 1, !"wchar_size", i32 4}
!1 = !{!"clang version 10.0.0-4ubuntu1 "}
